target datalayout = "e-m:e-p270:32:32-p271:32:32-p272:64:64-i64:64-i128:128-f80:128-n8:16:32:64-S128"
target triple = "x86_64-pc-linux-gnu"

%struct.quic_demux_st = type { ptr, i64, i64, i64, ptr, ptr, ptr, ptr, %struct.ossl_list_st_urxe, %struct.ossl_list_st_urxe, i8 }
%struct.ossl_list_st_urxe = type { ptr, ptr, i64 }
%struct.quic_urxe_st = type { %struct.anon, i64, i64, i64, i64, i64, %union.bio_addr_st, %union.bio_addr_st, %struct.OSSL_TIME, i8, i8 }
%struct.anon = type { ptr, ptr }
%union.bio_addr_st = type { %struct.sockaddr_in6, [84 x i8] }
%struct.sockaddr_in6 = type { i16, i16, i32, %struct.in6_addr, i32 }
%struct.in6_addr = type { %union.anon }
%union.anon = type { [4 x i32] }
%struct.OSSL_TIME = type { i64 }
%struct.quic_conn_id_st = type { i8, [20 x i8] }

; Function Attrs: inlinehint nounwind uwtable
define internal ptr @ossl_quic_urxe_data(ptr noundef %0) #3 {
  %2 = alloca ptr, align 8
  store ptr %0, ptr %2, align 8, !tbaa !24
  %3 = load ptr, ptr %2, align 8, !tbaa !24
  %4 = getelementptr inbounds %struct.quic_urxe_st, ptr %3, i64 1
  ret ptr %4
}

; Function Attrs: inlinehint nounwind uwtable
define internal void @ossl_list_urxe_insert_tail(ptr noundef %0, ptr noundef %1) #3 {
  %3 = alloca ptr, align 8
  %4 = alloca ptr, align 8
  store ptr %0, ptr %3, align 8, !tbaa !22
  store ptr %1, ptr %4, align 8, !tbaa !24
  %5 = load ptr, ptr %3, align 8, !tbaa !22
  %6 = getelementptr inbounds nuw %struct.ossl_list_st_urxe, ptr %5, i32 0, i32 1
  %7 = load ptr, ptr %6, align 8, !tbaa !57
  %8 = icmp ne ptr %7, null
  br i1 %8, label %9, label %16

9:                                                ; preds = %2
  %10 = load ptr, ptr %4, align 8, !tbaa !24
  %11 = load ptr, ptr %3, align 8, !tbaa !22
  %12 = getelementptr inbounds nuw %struct.ossl_list_st_urxe, ptr %11, i32 0, i32 1
  %13 = load ptr, ptr %12, align 8, !tbaa !57
  %14 = getelementptr inbounds nuw %struct.quic_urxe_st, ptr %13, i32 0, i32 0
  %15 = getelementptr inbounds nuw %struct.anon, ptr %14, i32 0, i32 0
  store ptr %10, ptr %15, align 8, !tbaa !56
  br label %16

16:                                               ; preds = %9, %2
  %17 = load ptr, ptr %3, align 8, !tbaa !22
  %18 = getelementptr inbounds nuw %struct.ossl_list_st_urxe, ptr %17, i32 0, i32 1
  %19 = load ptr, ptr %18, align 8, !tbaa !57
  %20 = load ptr, ptr %4, align 8, !tbaa !24
  %21 = getelementptr inbounds nuw %struct.quic_urxe_st, ptr %20, i32 0, i32 0
  %22 = getelementptr inbounds nuw %struct.anon, ptr %21, i32 0, i32 1
  store ptr %19, ptr %22, align 8, !tbaa !58
  %23 = load ptr, ptr %4, align 8, !tbaa !24
  %24 = getelementptr inbounds nuw %struct.quic_urxe_st, ptr %23, i32 0, i32 0
  %25 = getelementptr inbounds nuw %struct.anon, ptr %24, i32 0, i32 0
  store ptr null, ptr %25, align 8, !tbaa !56
  %26 = load ptr, ptr %4, align 8, !tbaa !24
  %27 = load ptr, ptr %3, align 8, !tbaa !22
  %28 = getelementptr inbounds nuw %struct.ossl_list_st_urxe, ptr %27, i32 0, i32 1
  store ptr %26, ptr %28, align 8, !tbaa !57
  %29 = load ptr, ptr %3, align 8, !tbaa !22
  %30 = getelementptr inbounds nuw %struct.ossl_list_st_urxe, ptr %29, i32 0, i32 0
  %31 = load ptr, ptr %30, align 8, !tbaa !31
  %32 = icmp eq ptr %31, null
  br i1 %32, label %33, label %37

33:                                               ; preds = %16
  %34 = load ptr, ptr %4, align 8, !tbaa !24
  %35 = load ptr, ptr %3, align 8, !tbaa !22
  %36 = getelementptr inbounds nuw %struct.ossl_list_st_urxe, ptr %35, i32 0, i32 0
  store ptr %34, ptr %36, align 8, !tbaa !31
  br label %37

37:                                               ; preds = %33, %16
  %38 = load ptr, ptr %3, align 8, !tbaa !22
  %39 = getelementptr inbounds nuw %struct.ossl_list_st_urxe, ptr %38, i32 0, i32 2
  %40 = load i64, ptr %39, align 8, !tbaa !59
  %41 = add i64 %40, 1
  store i64 %41, ptr %39, align 8, !tbaa !59
  ret void
}

; Function Attrs: inlinehint nounwind uwtable
define internal void @ossl_list_urxe_remove(ptr noundef %0, ptr noundef %1) #3 {
  %3 = alloca ptr, align 8
  %4 = alloca ptr, align 8
  store ptr %0, ptr %3, align 8, !tbaa !22
  store ptr %1, ptr %4, align 8, !tbaa !24
  %5 = load ptr, ptr %3, align 8, !tbaa !22
  %6 = getelementptr inbounds nuw %struct.ossl_list_st_urxe, ptr %5, i32 0, i32 0
  %7 = load ptr, ptr %6, align 8, !tbaa !31
  %8 = load ptr, ptr %4, align 8, !tbaa !24
  %9 = icmp eq ptr %7, %8
  br i1 %9, label %10, label %17

10:                                               ; preds = %2
  %11 = load ptr, ptr %4, align 8, !tbaa !24
  %12 = getelementptr inbounds nuw %struct.quic_urxe_st, ptr %11, i32 0, i32 0
  %13 = getelementptr inbounds nuw %struct.anon, ptr %12, i32 0, i32 0
  %14 = load ptr, ptr %13, align 8, !tbaa !56
  %15 = load ptr, ptr %3, align 8, !tbaa !22
  %16 = getelementptr inbounds nuw %struct.ossl_list_st_urxe, ptr %15, i32 0, i32 0
  store ptr %14, ptr %16, align 8, !tbaa !31
  br label %17

17:                                               ; preds = %10, %2
  %18 = load ptr, ptr %3, align 8, !tbaa !22
  %19 = getelementptr inbounds nuw %struct.ossl_list_st_urxe, ptr %18, i32 0, i32 1
  %20 = load ptr, ptr %19, align 8, !tbaa !57
  %21 = load ptr, ptr %4, align 8, !tbaa !24
  %22 = icmp eq ptr %20, %21
  br i1 %22, label %23, label %30

23:                                               ; preds = %17
  %24 = load ptr, ptr %4, align 8, !tbaa !24
  %25 = getelementptr inbounds nuw %struct.quic_urxe_st, ptr %24, i32 0, i32 0
  %26 = getelementptr inbounds nuw %struct.anon, ptr %25, i32 0, i32 1
  %27 = load ptr, ptr %26, align 8, !tbaa !58
  %28 = load ptr, ptr %3, align 8, !tbaa !22
  %29 = getelementptr inbounds nuw %struct.ossl_list_st_urxe, ptr %28, i32 0, i32 1
  store ptr %27, ptr %29, align 8, !tbaa !57
  br label %30

30:                                               ; preds = %23, %17
  %31 = load ptr, ptr %4, align 8, !tbaa !24
  %32 = getelementptr inbounds nuw %struct.quic_urxe_st, ptr %31, i32 0, i32 0
  %33 = getelementptr inbounds nuw %struct.anon, ptr %32, i32 0, i32 1
  %34 = load ptr, ptr %33, align 8, !tbaa !58
  %35 = icmp ne ptr %34, null
  br i1 %35, label %36, label %47

36:                                               ; preds = %30
  %37 = load ptr, ptr %4, align 8, !tbaa !24
  %38 = getelementptr inbounds nuw %struct.quic_urxe_st, ptr %37, i32 0, i32 0
  %39 = getelementptr inbounds nuw %struct.anon, ptr %38, i32 0, i32 0
  %40 = load ptr, ptr %39, align 8, !tbaa !56
  %41 = load ptr, ptr %4, align 8, !tbaa !24
  %42 = getelementptr inbounds nuw %struct.quic_urxe_st, ptr %41, i32 0, i32 0
  %43 = getelementptr inbounds nuw %struct.anon, ptr %42, i32 0, i32 1
  %44 = load ptr, ptr %43, align 8, !tbaa !58
  %45 = getelementptr inbounds nuw %struct.quic_urxe_st, ptr %44, i32 0, i32 0
  %46 = getelementptr inbounds nuw %struct.anon, ptr %45, i32 0, i32 0
  store ptr %40, ptr %46, align 8, !tbaa !56
  br label %47

47:                                               ; preds = %36, %30
  %48 = load ptr, ptr %4, align 8, !tbaa !24
  %49 = getelementptr inbounds nuw %struct.quic_urxe_st, ptr %48, i32 0, i32 0
  %50 = getelementptr inbounds nuw %struct.anon, ptr %49, i32 0, i32 0
  %51 = load ptr, ptr %50, align 8, !tbaa !56
  %52 = icmp ne ptr %51, null
  br i1 %52, label %53, label %64

53:                                               ; preds = %47
  %54 = load ptr, ptr %4, align 8, !tbaa !24
  %55 = getelementptr inbounds nuw %struct.quic_urxe_st, ptr %54, i32 0, i32 0
  %56 = getelementptr inbounds nuw %struct.anon, ptr %55, i32 0, i32 1
  %57 = load ptr, ptr %56, align 8, !tbaa !58
  %58 = load ptr, ptr %4, align 8, !tbaa !24
  %59 = getelementptr inbounds nuw %struct.quic_urxe_st, ptr %58, i32 0, i32 0
  %60 = getelementptr inbounds nuw %struct.anon, ptr %59, i32 0, i32 0
  %61 = load ptr, ptr %60, align 8, !tbaa !56
  %62 = getelementptr inbounds nuw %struct.quic_urxe_st, ptr %61, i32 0, i32 0
  %63 = getelementptr inbounds nuw %struct.anon, ptr %62, i32 0, i32 1
  store ptr %57, ptr %63, align 8, !tbaa !58
  br label %64

64:                                               ; preds = %53, %47
  %65 = load ptr, ptr %3, align 8, !tbaa !22
  %66 = getelementptr inbounds nuw %struct.ossl_list_st_urxe, ptr %65, i32 0, i32 2
  %67 = load i64, ptr %66, align 8, !tbaa !59
  %68 = add i64 %67, -1
  store i64 %68, ptr %66, align 8, !tbaa !59
  %69 = load ptr, ptr %4, align 8, !tbaa !24
  %70 = getelementptr inbounds nuw %struct.quic_urxe_st, ptr %69, i32 0, i32 0
  call void @llvm.memset.p0.i64(ptr align 8 %70, i8 0, i64 16, i1 false)
  ret void
}

; Function Attrs: nounwind uwtable
define internal i32 @demux_identify_conn_id(ptr noundef %0, ptr noundef %1, ptr noundef %2) #0 {
  %4 = alloca ptr, align 8
  %5 = alloca ptr, align 8
  %6 = alloca ptr, align 8
  store ptr %0, ptr %4, align 8, !tbaa !11
  store ptr %1, ptr %5, align 8, !tbaa !24
  store ptr %2, ptr %6, align 8, !tbaa !60
  %7 = load ptr, ptr %5, align 8, !tbaa !24
  %8 = call ptr @ossl_quic_urxe_data(ptr noundef %7)
  %9 = load ptr, ptr %5, align 8, !tbaa !24
  %10 = getelementptr inbounds nuw %struct.quic_urxe_st, ptr %9, i32 0, i32 1
  %11 = load i64, ptr %10, align 8, !tbaa !46
  %12 = load ptr, ptr %4, align 8, !tbaa !11
  %13 = getelementptr inbounds nuw %struct.quic_demux_st, ptr %12, i32 0, i32 1
  %14 = load i64, ptr %13, align 8, !tbaa !17
  %15 = load ptr, ptr %6, align 8, !tbaa !60
  %16 = call i32 @ossl_quic_wire_get_pkt_hdr_dst_conn_id(ptr noundef %8, i64 noundef %11, i64 noundef %14, ptr noundef %15)
  ret i32 %16
}

; Function Attrs: nounwind uwtable
define internal i32 @demux_process_pending_urxe(ptr noundef %0, ptr noundef %1) #0 {
  %3 = alloca i32, align 4
  %4 = alloca ptr, align 8
  %5 = alloca ptr, align 8
  %6 = alloca %struct.quic_conn_id_st, align 1
  %7 = alloca i32, align 4
  %8 = alloca i32, align 4
  store ptr %0, ptr %4, align 8, !tbaa !11
  store ptr %1, ptr %5, align 8, !tbaa !24
  call void @llvm.lifetime.start.p0(i64 21, ptr %6) #7
  call void @llvm.lifetime.start.p0(i64 4, ptr %7) #7
  store i32 0, ptr %7, align 4, !tbaa !27
  %9 = load ptr, ptr %5, align 8, !tbaa !24
  %10 = load ptr, ptr %4, align 8, !tbaa !11
  %11 = getelementptr inbounds nuw %struct.quic_demux_st, ptr %10, i32 0, i32 9
  %12 = call ptr @ossl_list_urxe_head(ptr noundef %11)
  %13 = icmp eq ptr %9, %12
  %14 = zext i1 %13 to i32
  %15 = icmp ne i32 %14, 0
  %16 = xor i1 %15, true
  %17 = xor i1 %16, true
  %18 = zext i1 %17 to i32
  %19 = sext i32 %18 to i64
  %20 = call i64 @llvm.expect.i64(i64 %19, i64 1)
  %21 = icmp ne i64 %20, 0
  br i1 %21, label %23, label %22

22:                                               ; preds = %2
  store i32 0, ptr %3, align 4
  store i32 1, ptr %8, align 4
  br label %57

23:                                               ; preds = %2
  %24 = load ptr, ptr %4, align 8, !tbaa !11
  %25 = load ptr, ptr %5, align 8, !tbaa !24
  %26 = call i32 @demux_identify_conn_id(ptr noundef %24, ptr noundef %25, ptr noundef %6)
  store i32 %26, ptr %7, align 4, !tbaa !27
  %27 = load ptr, ptr %4, align 8, !tbaa !11
  %28 = getelementptr inbounds nuw %struct.quic_demux_st, ptr %27, i32 0, i32 9
  %29 = load ptr, ptr %5, align 8, !tbaa !24
  call void @ossl_list_urxe_remove(ptr noundef %28, ptr noundef %29)
  %30 = load ptr, ptr %4, align 8, !tbaa !11
  %31 = getelementptr inbounds nuw %struct.quic_demux_st, ptr %30, i32 0, i32 6
  %32 = load ptr, ptr %31, align 8, !tbaa !29
  %33 = icmp ne ptr %32, null
  br i1 %33, label %34, label %50

34:                                               ; preds = %23
  %35 = load ptr, ptr %5, align 8, !tbaa !24
  %36 = getelementptr inbounds nuw %struct.quic_urxe_st, ptr %35, i32 0, i32 10
  store i8 2, ptr %36, align 1, !tbaa !32
  %37 = load ptr, ptr %4, align 8, !tbaa !11
  %38 = getelementptr inbounds nuw %struct.quic_demux_st, ptr %37, i32 0, i32 6
  %39 = load ptr, ptr %38, align 8, !tbaa !29
  %40 = load ptr, ptr %5, align 8, !tbaa !24
  %41 = load ptr, ptr %4, align 8, !tbaa !11
  %42 = getelementptr inbounds nuw %struct.quic_demux_st, ptr %41, i32 0, i32 7
  %43 = load ptr, ptr %42, align 8, !tbaa !30
  %44 = load i32, ptr %7, align 4, !tbaa !27
  %45 = icmp ne i32 %44, 0
  br i1 %45, label %46, label %47

46:                                               ; preds = %34
  br label %48

47:                                               ; preds = %34
  br label %48

48:                                               ; preds = %47, %46
  %49 = phi ptr [ %6, %46 ], [ null, %47 ]
  call void %39(ptr noundef %40, ptr noundef %43, ptr noundef %49)
  br label %56

50:                                               ; preds = %23
  %51 = load ptr, ptr %4, align 8, !tbaa !11
  %52 = getelementptr inbounds nuw %struct.quic_demux_st, ptr %51, i32 0, i32 8
  %53 = load ptr, ptr %5, align 8, !tbaa !24
  call void @ossl_list_urxe_insert_tail(ptr noundef %52, ptr noundef %53)
  %54 = load ptr, ptr %5, align 8, !tbaa !24
  %55 = getelementptr inbounds nuw %struct.quic_urxe_st, ptr %54, i32 0, i32 10
  store i8 0, ptr %55, align 1, !tbaa !32
  br label %56

56:                                               ; preds = %50, %48
  store i32 1, ptr %3, align 4
  store i32 1, ptr %8, align 4
  br label %57

57:                                               ; preds = %56, %22
  call void @llvm.lifetime.end.p0(i64 4, ptr %7) #7
  call void @llvm.lifetime.end.p0(i64 21, ptr %6) #7
  %58 = load i32, ptr %3, align 4
  ret i32 %58
}

; Function Attrs: inlinehint nounwind uwtable
define internal ptr @ossl_list_urxe_head(ptr noundef %0) #3 {
  %2 = alloca ptr, align 8
  store ptr %0, ptr %2, align 8, !tbaa !22
  %3 = load ptr, ptr %2, align 8, !tbaa !22
  %4 = getelementptr inbounds nuw %struct.ossl_list_st_urxe, ptr %3, i32 0, i32 0
  %5 = load ptr, ptr %4, align 8, !tbaa !31
  ret ptr %5
}

; Function Attrs: nounwind uwtable
define internal i32 @demux_process_pending_urxl(ptr noundef %0) #0 {
  %2 = alloca i32, align 4
  %3 = alloca ptr, align 8
  %4 = alloca ptr, align 8
  %5 = alloca i32, align 4
  %6 = alloca i32, align 4
  store ptr %0, ptr %3, align 8, !tbaa !11
  call void @llvm.lifetime.start.p0(i64 8, ptr %4) #7
  call void @llvm.lifetime.start.p0(i64 4, ptr %5) #7
  br label %7

7:                                                ; preds = %19, %1
  %8 = load ptr, ptr %3, align 8, !tbaa !11
  %9 = getelementptr inbounds nuw %struct.quic_demux_st, ptr %8, i32 0, i32 9
  %10 = call ptr @ossl_list_urxe_head(ptr noundef %9)
  store ptr %10, ptr %4, align 8, !tbaa !24
  %11 = icmp ne ptr %10, null
  br i1 %11, label %12, label %20

12:                                               ; preds = %7
  %13 = load ptr, ptr %3, align 8, !tbaa !11
  %14 = load ptr, ptr %4, align 8, !tbaa !24
  %15 = call i32 @demux_process_pending_urxe(ptr noundef %13, ptr noundef %14)
  store i32 %15, ptr %5, align 4, !tbaa !27
  %16 = icmp sle i32 %15, 0
  br i1 %16, label %17, label %19

17:                                               ; preds = %12
  %18 = load i32, ptr %5, align 4, !tbaa !27
  store i32 %18, ptr %2, align 4
  store i32 1, ptr %6, align 4
  br label %21

19:                                               ; preds = %12
  br label %7, !llvm.loop !50

20:                                               ; preds = %7
  store i32 1, ptr %2, align 4
  store i32 1, ptr %6, align 4
  br label %21

21:                                               ; preds = %20, %17
  call void @llvm.lifetime.end.p0(i64 4, ptr %5) #7
  call void @llvm.lifetime.end.p0(i64 8, ptr %4) #7
  %22 = load i32, ptr %2, align 4
  ret i32 %22
}