; Function Attrs: nounwind uwtable
define internal fastcc noundef range(i32 -2147483648, 2) i32 @demux_process_pending_urxl(ptr noundef captures(none) %0) unnamed_addr #0 {
  %2 = alloca %struct.quic_conn_id_st, align 1
  %3 = getelementptr inbounds nuw i8, ptr %0, i64 88
  %.val7 = load ptr, ptr %3, align 8, !tbaa !17
  %.not8 = icmp eq ptr %.val7, null
  br i1 %.not8, label %._crit_edge, label %.lr.ph

.lr.ph:                                           ; preds = %1
  %4 = getelementptr i8, ptr %0, i64 8
  %5 = getelementptr inbounds nuw i8, ptr %0, i64 96
  %6 = getelementptr inbounds nuw i8, ptr %0, i64 104
  %7 = getelementptr inbounds nuw i8, ptr %0, i64 48
  %8 = getelementptr inbounds nuw i8, ptr %0, i64 56
  %9 = getelementptr inbounds nuw i8, ptr %0, i64 64
  %10 = getelementptr inbounds nuw i8, ptr %0, i64 72
  %11 = getelementptr inbounds nuw i8, ptr %0, i64 80
  br label %12

12:                                               ; preds = %.lr.ph, %demux_process_pending_urxe.exit
  %.val9 = phi ptr [ %.val7, %.lr.ph ], [ %.val, %demux_process_pending_urxe.exit ]
  call void @llvm.lifetime.start.p0(i64 21, ptr nonnull %2) #8
  %.val17.i = load i64, ptr %4, align 8, !tbaa !12
  %13 = getelementptr inbounds nuw i8, ptr %.val9, i64 296
  %14 = getelementptr inbounds nuw i8, ptr %.val9, i64 16
  %15 = load i64, ptr %14, align 8, !tbaa !30
  %16 = call i32 @ossl_quic_wire_get_pkt_hdr_dst_conn_id(ptr noundef nonnull %13, i64 noundef %15, i64 noundef %.val17.i, ptr noundef nonnull %2) #8
  %17 = load ptr, ptr %3, align 8, !tbaa !17
  %18 = icmp eq ptr %17, %.val9
  br i1 %18, label %19, label %21

19:                                               ; preds = %12
  %20 = load ptr, ptr %.val9, align 8, !tbaa !18
  store ptr %20, ptr %3, align 8, !tbaa !17
  br label %21

21:                                               ; preds = %19, %12
  %22 = load ptr, ptr %5, align 8, !tbaa !22
  %23 = icmp eq ptr %22, %.val9
  %24 = getelementptr inbounds nuw i8, ptr %.val9, i64 8
  %25 = load ptr, ptr %24, align 8, !tbaa !23
  br i1 %23, label %26, label %._crit_edge.i.i

26:                                               ; preds = %21
  store ptr %25, ptr %5, align 8, !tbaa !22
  br label %._crit_edge.i.i

._crit_edge.i.i:                                  ; preds = %26, %21
  %.not.i.i = icmp eq ptr %25, null
  %.pre19.i.i = load ptr, ptr %.val9, align 8, !tbaa !18
  br i1 %.not.i.i, label %28, label %27

27:                                               ; preds = %._crit_edge.i.i
  store ptr %.pre19.i.i, ptr %25, align 8, !tbaa !18
  br label %28

28:                                               ; preds = %27, %._crit_edge.i.i
  %.not18.i.i = icmp eq ptr %.pre19.i.i, null
  br i1 %.not18.i.i, label %ossl_list_urxe_remove.exit.i, label %29

29:                                               ; preds = %28
  %30 = getelementptr inbounds nuw i8, ptr %.pre19.i.i, i64 8
  store ptr %25, ptr %30, align 8, !tbaa !23
  br label %ossl_list_urxe_remove.exit.i

ossl_list_urxe_remove.exit.i:                     ; preds = %29, %28
  %31 = load i64, ptr %6, align 8, !tbaa !24
  %32 = add i64 %31, -1
  store i64 %32, ptr %6, align 8, !tbaa !24
  call void @llvm.memset.p0.i64(ptr noundef nonnull align 8 dereferenceable(16) %.val9, i8 0, i64 16, i1 false)
  %33 = load ptr, ptr %7, align 8, !tbaa !27
  %.not.i = icmp eq ptr %33, null
  br i1 %.not.i, label %37, label %34

34:                                               ; preds = %ossl_list_urxe_remove.exit.i
  %35 = getelementptr inbounds nuw i8, ptr %.val9, i64 289
  store i8 2, ptr %35, align 1, !tbaa !31
  %36 = load ptr, ptr %8, align 8, !tbaa !28
  %.not16.i = icmp eq i32 %16, 0
  %..i = select i1 %.not16.i, ptr null, ptr %2
  call void %33(ptr noundef nonnull %.val9, ptr noundef %36, ptr noundef %..i) #8
  br label %demux_process_pending_urxe.exit

37:                                               ; preds = %ossl_list_urxe_remove.exit.i
  %38 = load ptr, ptr %10, align 8, !tbaa !22
  %.not.i18.i = icmp eq ptr %38, null
  br i1 %.not.i18.i, label %40, label %39

39:                                               ; preds = %37
  store ptr %.val9, ptr %38, align 8, !tbaa !18
  br label %40

40:                                               ; preds = %39, %37
  store ptr %38, ptr %24, align 8, !tbaa !23
  store ptr null, ptr %.val9, align 8, !tbaa !18
  store ptr %.val9, ptr %10, align 8, !tbaa !22
  %41 = load ptr, ptr %9, align 8, !tbaa !17
  %42 = icmp eq ptr %41, null
  br i1 %42, label %43, label %ossl_list_urxe_insert_tail.exit.i

43:                                               ; preds = %40
  store ptr %.val9, ptr %9, align 8, !tbaa !17
  br label %ossl_list_urxe_insert_tail.exit.i

ossl_list_urxe_insert_tail.exit.i:                ; preds = %43, %40
  %44 = load i64, ptr %11, align 8, !tbaa !24
  %45 = add i64 %44, 1
  store i64 %45, ptr %11, align 8, !tbaa !24
  %46 = getelementptr inbounds nuw i8, ptr %.val9, i64 289
  store i8 0, ptr %46, align 1, !tbaa !31
  br label %demux_process_pending_urxe.exit

demux_process_pending_urxe.exit:                  ; preds = %34, %ossl_list_urxe_insert_tail.exit.i
  call void @llvm.lifetime.end.p0(i64 21, ptr nonnull %2) #8
  %.val = load ptr, ptr %3, align 8, !tbaa !17
  %.not = icmp eq ptr %.val, null
  br i1 %.not, label %._crit_edge, label %12, !llvm.loop !46

._crit_edge:                                      ; preds = %demux_process_pending_urxe.exit, %1
  ret i32 1
}